target datalayout = "e-m:e-p270:32:32-p271:32:32-p272:64:64-i64:64-i128:128-f80:128-n8:16:32:64-S128"
target triple = "x86_64-pc-linux-gnu"

; Function Attrs: nounwind uwtable
define internal void @_image_info_changed_destroy_callback(ptr noundef %0, ptr noundef %1, ptr noundef %2) #0 {
  %4 = alloca ptr, align 8
  %5 = alloca ptr, align 8
  %6 = alloca ptr, align 8
  store ptr %0, ptr %4, align 8, !tbaa !37
  store ptr %1, ptr %5, align 8, !tbaa !37
  store ptr %2, ptr %6, align 8, !tbaa !37
  %7 = load ptr, ptr %5, align 8, !tbaa !37
  %8 = icmp ne ptr %7, null
  br i1 %8, label %9, label %11

9:                                                ; preds = %3
  %10 = load ptr, ptr %5, align 8, !tbaa !37
  call void @g_list_free(ptr noundef %10)
  store ptr null, ptr %5, align 8, !tbaa !37
  br label %11

11:                                               ; preds = %9, %3
  ret void
}