; Function Attrs: nounwind uwtable
define internal void @_image_info_changed_destroy_callback(ptr readnone captures(none) %0, ptr noundef %1, ptr readnone captures(none) %2) #0 {
  %.not = icmp eq ptr %1, null
  br i1 %.not, label %5, label %4

4:                                                ; preds = %3
  tail call void @g_list_free(ptr noundef nonnull %1) #11
  br label %5

5:                                                ; preds = %4, %3
  ret void
}